; ModuleID = '56/2825.c'
source_filename = "56/2825.c"
target datalayout = "e-m:e-p270:32:32-p271:32:32-p272:64:64-i64:64-f80:128-n8:16:32:64-S128"
target triple = "x86_64-pc-linux-gnu"

@.str = private unnamed_addr constant [3 x i8] c"%d\00", align 1

; Function Attrs: noinline nounwind uwtable
define dso_local void @main() #0 {
  %1 = alloca i32, align 4
  %2 = alloca i32, align 4
  %3 = alloca i32, align 4
  %4 = alloca i32, align 4
  %5 = alloca i32, align 4
  %6 = alloca i32, align 4
  %7 = alloca i32, align 4
  %8 = call i32 (i8*, ...) @__isoc99_scanf(i8* getelementptr inbounds ([3 x i8], [3 x i8]* @.str, i64 0, i64 0), i32* %1)
  %9 = load i32, i32* %1, align 4
  %10 = sdiv i32 %9, 10000
  store i32 %10, i32* %3, align 4
  %11 = load i32, i32* %1, align 4
  %12 = load i32, i32* %3, align 4
  %13 = mul nsw i32 %12, 10000
  %14 = sub nsw i32 %11, %13
  %15 = sdiv i32 %14, 1000
  store i32 %15, i32* %4, align 4
  %16 = load i32, i32* %1, align 4
  %17 = load i32, i32* %3, align 4
  %18 = mul nsw i32 %17, 10000
  %19 = sub nsw i32 %16, %18
  %20 = load i32, i32* %4, align 4
  %21 = mul nsw i32 %20, 1000
  %22 = sub nsw i32 %19, %21
  %23 = sdiv i32 %22, 100
  store i32 %23, i32* %5, align 4
  %24 = load i32, i32* %1, align 4
  %25 = load i32, i32* %3, align 4
  %26 = mul nsw i32 %25, 10000
  %27 = sub nsw i32 %24, %26
  %28 = load i32, i32* %4, align 4
  %29 = mul nsw i32 %28, 1000
  %30 = sub nsw i32 %27, %29
  %31 = load i32, i32* %5, align 4
  %32 = mul nsw i32 %31, 100
  %33 = sub nsw i32 %30, %32
  %34 = sdiv i32 %33, 10
  store i32 %34, i32* %6, align 4
  %35 = load i32, i32* %1, align 4
  %36 = load i32, i32* %3, align 4
  %37 = mul nsw i32 %36, 10000
  %38 = sub nsw i32 %35, %37
  %39 = load i32, i32* %4, align 4
  %40 = mul nsw i32 %39, 1000
  %41 = sub nsw i32 %38, %40
  %42 = load i32, i32* %5, align 4
  %43 = mul nsw i32 %42, 100
  %44 = sub nsw i32 %41, %43
  %45 = load i32, i32* %6, align 4
  %46 = mul nsw i32 %45, 10
  %47 = sub nsw i32 %44, %46
  store i32 %47, i32* %7, align 4
  %48 = load i32, i32* %3, align 4
  %49 = icmp sgt i32 %48, 0
  br i1 %49, label %50, label %64

50:                                               ; preds = %0
  %51 = load i32, i32* %7, align 4
  %52 = mul nsw i32 %51, 10000
  %53 = load i32, i32* %6, align 4
  %54 = mul nsw i32 %53, 1000
  %55 = add nsw i32 %52, %54
  %56 = load i32, i32* %5, align 4
  %57 = mul nsw i32 %56, 100
  %58 = add nsw i32 %55, %57
  %59 = load i32, i32* %4, align 4
  %60 = mul nsw i32 %59, 10
  %61 = add nsw i32 %58, %60
  %62 = load i32, i32* %3, align 4
  %63 = add nsw i32 %61, %62
  store i32 %63, i32* %2, align 4
  br label %64

64:                                               ; preds = %50, %0
  %65 = load i32, i32* %3, align 4
  %66 = icmp eq i32 %65, 0
  br i1 %66, label %67, label %81

67:                                               ; preds = %64
  %68 = load i32, i32* %4, align 4
  %69 = icmp sgt i32 %68, 0
  br i1 %69, label %70, label %81

70:                                               ; preds = %67
  %71 = load i32, i32* %7, align 4
  %72 = mul nsw i32 %71, 1000
  %73 = load i32, i32* %6, align 4
  %74 = mul nsw i32 %73, 100
  %75 = add nsw i32 %72, %74
  %76 = load i32, i32* %5, align 4
  %77 = mul nsw i32 %76, 10
  %78 = add nsw i32 %75, %77
  %79 = load i32, i32* %4, align 4
  %80 = add nsw i32 %78, %79
  store i32 %80, i32* %2, align 4
  br label %81

81:                                               ; preds = %70, %67, %64
  %82 = load i32, i32* %3, align 4
  %83 = icmp eq i32 %82, 0
  br i1 %83, label %84, label %98

84:                                               ; preds = %81
  %85 = load i32, i32* %4, align 4
  %86 = icmp eq i32 %85, 0
  br i1 %86, label %87, label %98

87:                                               ; preds = %84
  %88 = load i32, i32* %5, align 4
  %89 = icmp sgt i32 %88, 0
  br i1 %89, label %90, label %98

90:                                               ; preds = %87
  %91 = load i32, i32* %7, align 4
  %92 = mul nsw i32 %91, 100
  %93 = load i32, i32* %6, align 4
  %94 = mul nsw i32 %93, 10
  %95 = add nsw i32 %92, %94
  %96 = load i32, i32* %5, align 4
  %97 = add nsw i32 %95, %96
  store i32 %97, i32* %2, align 4
  br label %98

98:                                               ; preds = %90, %87, %84, %81
  %99 = load i32, i32* %3, align 4
  %100 = icmp eq i32 %99, 0
  br i1 %100, label %101, label %115

101:                                              ; preds = %98
  %102 = load i32, i32* %4, align 4
  %103 = icmp eq i32 %102, 0
  br i1 %103, label %104, label %115

104:                                              ; preds = %101
  %105 = load i32, i32* %5, align 4
  %106 = icmp eq i32 %105, 0
  br i1 %106, label %107, label %115

107:                                              ; preds = %104
  %108 = load i32, i32* %6, align 4
  %109 = icmp sgt i32 %108, 0
  br i1 %109, label %110, label %115

110:                                              ; preds = %107
  %111 = load i32, i32* %7, align 4
  %112 = mul nsw i32 %111, 10
  %113 = load i32, i32* %6, align 4
  %114 = add nsw i32 %112, %113
  store i32 %114, i32* %2, align 4
  br label %115

115:                                              ; preds = %110, %107, %104, %101, %98
  %116 = load i32, i32* %3, align 4
  %117 = icmp eq i32 %116, 0
  br i1 %117, label %118, label %129

118:                                              ; preds = %115
  %119 = load i32, i32* %4, align 4
  %120 = icmp eq i32 %119, 0
  br i1 %120, label %121, label %129

121:                                              ; preds = %118
  %122 = load i32, i32* %5, align 4
  %123 = icmp eq i32 %122, 0
  br i1 %123, label %124, label %129

124:                                              ; preds = %121
  %125 = load i32, i32* %6, align 4
  %126 = icmp eq i32 %125, 0
  br i1 %126, label %127, label %129

127:                                              ; preds = %124
  %128 = load i32, i32* %1, align 4
  store i32 %128, i32* %2, align 4
  br label %129

129:                                              ; preds = %127, %124, %121, %118, %115
  %130 = load i32, i32* %2, align 4
  %131 = call i32 (i8*, ...) @printf(i8* getelementptr inbounds ([3 x i8], [3 x i8]* @.str, i64 0, i64 0), i32 %130)
  ret void
}

declare dso_local i32 @__isoc99_scanf(i8*, ...) #1

declare dso_local i32 @printf(i8*, ...) #1


!llvm.module.flags = !{!0}
!llvm.ident = !{!1}

!0 = !{i32 1, !"wchar_size", i32 4}
!1 = !{!"clang version 10.0.0-4ubuntu1 "}
